; ModuleID = '52/1330.c'
source_filename = "52/1330.c"
target datalayout = "e-m:e-p270:32:32-p271:32:32-p272:64:64-i64:64-f80:128-n8:16:32:64-S128"
target triple = "x86_64-pc-linux-gnu"

@.str = private unnamed_addr constant [5 x i8] c"%d%d\00", align 1
@.str.1 = private unnamed_addr constant [3 x i8] c"%d\00", align 1
@.str.2 = private unnamed_addr constant [4 x i8] c"%d \00", align 1

; Function Attrs: noinline nounwind uwtable
define dso_local void @main() #0 {
  %1 = alloca [100 x i32], align 16
  %2 = alloca i32, align 4
  %3 = alloca i32, align 4
  %4 = alloca i32, align 4
  %5 = alloca i32, align 4
  %6 = alloca i32, align 4
  %7 = call i32 (i8*, ...) @__isoc99_scanf(i8* getelementptr inbounds ([5 x i8], [5 x i8]* @.str, i64 0, i64 0), i32* %2, i32* %3)
  store i32 0, i32* %4, align 4
  br label %8

8:                                                ; preds = %17, %0
  %9 = load i32, i32* %4, align 4
  %10 = load i32, i32* %2, align 4
  %11 = icmp slt i32 %9, %10
  br i1 %11, label %12, label %20

12:                                               ; preds = %8
  %13 = load i32, i32* %4, align 4
  %14 = sext i32 %13 to i64
  %15 = getelementptr inbounds [100 x i32], [100 x i32]* %1, i64 0, i64 %14
  %16 = call i32 (i8*, ...) @__isoc99_scanf(i8* getelementptr inbounds ([3 x i8], [3 x i8]* @.str.1, i64 0, i64 0), i32* %15)
  br label %17

17:                                               ; preds = %12
  %18 = load i32, i32* %4, align 4
  %19 = add nsw i32 %18, 1
  store i32 %19, i32* %4, align 4
  br label %8

20:                                               ; preds = %8
  %21 = load i32, i32* %2, align 4
  %22 = sub nsw i32 %21, 1
  store i32 %22, i32* %4, align 4
  br label %23

23:                                               ; preds = %57, %20
  %24 = load i32, i32* %4, align 4
  %25 = load i32, i32* %2, align 4
  %26 = load i32, i32* %3, align 4
  %27 = sub nsw i32 %25, %26
  %28 = icmp sge i32 %24, %27
  br i1 %28, label %29, label %60

29:                                               ; preds = %23
  %30 = load i32, i32* %2, align 4
  %31 = sub nsw i32 %30, 1
  store i32 %31, i32* %5, align 4
  br label %32

32:                                               ; preds = %53, %29
  %33 = load i32, i32* %5, align 4
  %34 = icmp sge i32 %33, 1
  br i1 %34, label %35, label %56

35:                                               ; preds = %32
  %36 = load i32, i32* %5, align 4
  %37 = sub nsw i32 %36, 1
  %38 = sext i32 %37 to i64
  %39 = getelementptr inbounds [100 x i32], [100 x i32]* %1, i64 0, i64 %38
  %40 = load i32, i32* %39, align 4
  store i32 %40, i32* %6, align 4
  %41 = load i32, i32* %5, align 4
  %42 = sext i32 %41 to i64
  %43 = getelementptr inbounds [100 x i32], [100 x i32]* %1, i64 0, i64 %42
  %44 = load i32, i32* %43, align 4
  %45 = load i32, i32* %5, align 4
  %46 = sub nsw i32 %45, 1
  %47 = sext i32 %46 to i64
  %48 = getelementptr inbounds [100 x i32], [100 x i32]* %1, i64 0, i64 %47
  store i32 %44, i32* %48, align 4
  %49 = load i32, i32* %6, align 4
  %50 = load i32, i32* %5, align 4
  %51 = sext i32 %50 to i64
  %52 = getelementptr inbounds [100 x i32], [100 x i32]* %1, i64 0, i64 %51
  store i32 %49, i32* %52, align 4
  br label %53

53:                                               ; preds = %35
  %54 = load i32, i32* %5, align 4
  %55 = add nsw i32 %54, -1
  store i32 %55, i32* %5, align 4
  br label %32

56:                                               ; preds = %32
  br label %57

57:                                               ; preds = %56
  %58 = load i32, i32* %4, align 4
  %59 = add nsw i32 %58, -1
  store i32 %59, i32* %4, align 4
  br label %23

60:                                               ; preds = %23
  store i32 0, i32* %4, align 4
  br label %61

61:                                               ; preds = %72, %60
  %62 = load i32, i32* %4, align 4
  %63 = load i32, i32* %2, align 4
  %64 = sub nsw i32 %63, 1
  %65 = icmp slt i32 %62, %64
  br i1 %65, label %66, label %75

66:                                               ; preds = %61
  %67 = load i32, i32* %4, align 4
  %68 = sext i32 %67 to i64
  %69 = getelementptr inbounds [100 x i32], [100 x i32]* %1, i64 0, i64 %68
  %70 = load i32, i32* %69, align 4
  %71 = call i32 (i8*, ...) @printf(i8* getelementptr inbounds ([4 x i8], [4 x i8]* @.str.2, i64 0, i64 0), i32 %70)
  br label %72

72:                                               ; preds = %66
  %73 = load i32, i32* %4, align 4
  %74 = add nsw i32 %73, 1
  store i32 %74, i32* %4, align 4
  br label %61

75:                                               ; preds = %61
  %76 = load i32, i32* %2, align 4
  %77 = sub nsw i32 %76, 1
  %78 = sext i32 %77 to i64
  %79 = getelementptr inbounds [100 x i32], [100 x i32]* %1, i64 0, i64 %78
  %80 = load i32, i32* %79, align 4
  %81 = call i32 (i8*, ...) @printf(i8* getelementptr inbounds ([3 x i8], [3 x i8]* @.str.1, i64 0, i64 0), i32 %80)
  ret void
}

declare dso_local i32 @__isoc99_scanf(i8*, ...) #1

declare dso_local i32 @printf(i8*, ...) #1


!llvm.module.flags = !{!0}
!llvm.ident = !{!1}

!0 = !{i32 1, !"wchar_size", i32 4}
!1 = !{!"clang version 10.0.0-4ubuntu1 "}
